target datalayout = "e-m:e-p270:32:32-p271:32:32-p272:64:64-i64:64-i128:128-f80:128-n8:16:32:64-S128"
target triple = "x86_64-pc-linux-gnu"

%"class.duckdb_re2::FilteredRE2" = type { %"class.std::vector", i8, %"class.std::unique_ptr" }
%"class.std::vector" = type { %"struct.std::_Vector_base" }
%"struct.std::_Vector_base" = type { %"struct.std::_Vector_base<duckdb_re2::RE2 *, std::allocator<duckdb_re2::RE2 *>>::_Vector_impl" }
%"struct.std::_Vector_base<duckdb_re2::RE2 *, std::allocator<duckdb_re2::RE2 *>>::_Vector_impl" = type { %"struct.std::_Vector_base<duckdb_re2::RE2 *, std::allocator<duckdb_re2::RE2 *>>::_Vector_impl_data" }
%"struct.std::_Vector_base<duckdb_re2::RE2 *, std::allocator<duckdb_re2::RE2 *>>::_Vector_impl_data" = type { ptr, ptr, ptr }
%"class.std::unique_ptr" = type { %"struct.std::__uniq_ptr_data" }
%"struct.std::__uniq_ptr_data" = type { %"class.std::__uniq_ptr_impl" }
%"class.std::__uniq_ptr_impl" = type { %"class.std::tuple" }
%"class.std::tuple" = type { %"struct.std::_Tuple_impl" }
%"struct.std::_Tuple_impl" = type { %"struct.std::_Head_base.1" }
%"struct.std::_Head_base.1" = type { ptr }
%"class.duckdb_re2::StringPiece" = type { ptr, i64 }

; Function Attrs: inlinehint mustprogress uwtable
define linkonce_odr hidden noundef zeroext i1 @_ZN10duckdb_re23RE25ApplyIPFbRKNS_11StringPieceERKS0_PKPKNS0_3ArgEiES2_EEbT_T0_S6_(ptr noundef %0, ptr %1, i64 %2, ptr noundef nonnull align 8 dereferenceable(148) %3) #7 comdat align 2 {
  %5 = alloca %"class.duckdb_re2::StringPiece", align 8
  %6 = alloca ptr, align 8
  %7 = alloca ptr, align 8
  %8 = getelementptr inbounds nuw { ptr, i64 }, ptr %5, i32 0, i32 0
  store ptr %1, ptr %8, align 8
  %9 = getelementptr inbounds nuw { ptr, i64 }, ptr %5, i32 0, i32 1
  store i64 %2, ptr %9, align 8
  store ptr %0, ptr %6, align 8, !tbaa !145
  store ptr %3, ptr %7, align 8, !tbaa !34
  %10 = load ptr, ptr %6, align 8, !tbaa !145
  %11 = load ptr, ptr %7, align 8, !tbaa !34
  %12 = call noundef zeroext i1 %10(ptr noundef nonnull align 8 dereferenceable(16) %5, ptr noundef nonnull align 8 dereferenceable(148) %11, ptr noundef null, i32 noundef 0)
  ret i1 %12
}

; Function Attrs: mustprogress uwtable
define linkonce_odr hidden noundef zeroext i1 @_ZN10duckdb_re23RE212PartialMatchIJEEEbRKNS_11StringPieceERKS0_DpOT_(ptr noundef nonnull align 8 dereferenceable(16) %0, ptr noundef nonnull align 8 dereferenceable(148) %1) #0 comdat align 2 {
  %3 = alloca ptr, align 8
  %4 = alloca ptr, align 8
  %5 = alloca %"class.duckdb_re2::StringPiece", align 8
  store ptr %0, ptr %3, align 8, !tbaa !42
  store ptr %1, ptr %4, align 8, !tbaa !34
  %6 = load ptr, ptr %3, align 8, !tbaa !42
  call void @llvm.memcpy.p0.p0.i64(ptr align 8 %5, ptr align 8 %6, i64 16, i1 false), !tbaa.struct !91
  %7 = load ptr, ptr %4, align 8, !tbaa !34
  %8 = getelementptr inbounds nuw { ptr, i64 }, ptr %5, i32 0, i32 0
  %9 = load ptr, ptr %8, align 8
  %10 = getelementptr inbounds nuw { ptr, i64 }, ptr %5, i32 0, i32 1
  %11 = load i64, ptr %10, align 8
  %12 = call noundef zeroext i1 @_ZN10duckdb_re23RE25ApplyIPFbRKNS_11StringPieceERKS0_PKPKNS0_3ArgEiES2_EEbT_T0_S6_(ptr noundef @_ZN10duckdb_re23RE213PartialMatchNERKNS_11StringPieceERKS0_PKPKNS0_3ArgEi, ptr %9, i64 %11, ptr noundef nonnull align 8 dereferenceable(148) %7)
  ret i1 %12
}

; Function Attrs: mustprogress nounwind uwtable
define linkonce_odr hidden noundef nonnull align 8 dereferenceable(8) ptr @_ZNKSt6vectorIPN10duckdb_re23RE2ESaIS2_EEixEm(ptr noundef nonnull align 8 dereferenceable(24) %0, i64 noundef %1) #1 comdat align 2 {
  %3 = alloca ptr, align 8
  %4 = alloca i64, align 8
  store ptr %0, ptr %3, align 8, !tbaa !23
  store i64 %1, ptr %4, align 8, !tbaa !32
  %5 = load ptr, ptr %3, align 8
  %6 = getelementptr inbounds nuw %"struct.std::_Vector_base", ptr %5, i32 0, i32 0
  %7 = getelementptr inbounds nuw %"struct.std::_Vector_base<duckdb_re2::RE2 *, std::allocator<duckdb_re2::RE2 *>>::_Vector_impl_data", ptr %6, i32 0, i32 0
  %8 = load ptr, ptr %7, align 8, !tbaa !28
  %9 = load i64, ptr %4, align 8, !tbaa !32
  %10 = getelementptr inbounds nuw ptr, ptr %8, i64 %9
  ret ptr %10
}

; Function Attrs: mustprogress nounwind uwtable
define linkonce_odr hidden noundef i64 @_ZNKSt6vectorIPN10duckdb_re23RE2ESaIS2_EE4sizeEv(ptr noundef nonnull align 8 dereferenceable(24) %0) #1 comdat align 2 {
  %2 = alloca ptr, align 8
  store ptr %0, ptr %2, align 8, !tbaa !23
  %3 = load ptr, ptr %2, align 8
  %4 = getelementptr inbounds nuw %"struct.std::_Vector_base", ptr %3, i32 0, i32 0
  %5 = getelementptr inbounds nuw %"struct.std::_Vector_base<duckdb_re2::RE2 *, std::allocator<duckdb_re2::RE2 *>>::_Vector_impl_data", ptr %4, i32 0, i32 1
  %6 = load ptr, ptr %5, align 8, !tbaa !29
  %7 = getelementptr inbounds nuw %"struct.std::_Vector_base", ptr %3, i32 0, i32 0
  %8 = getelementptr inbounds nuw %"struct.std::_Vector_base<duckdb_re2::RE2 *, std::allocator<duckdb_re2::RE2 *>>::_Vector_impl_data", ptr %7, i32 0, i32 0
  %9 = load ptr, ptr %8, align 8, !tbaa !28
  %10 = ptrtoint ptr %6 to i64
  %11 = ptrtoint ptr %9 to i64
  %12 = sub i64 %10, %11
  %13 = sdiv exact i64 %12, 8
  ret i64 %13
}

; Function Attrs: mustprogress uwtable
define hidden noundef i32 @_ZNK10duckdb_re211FilteredRE214SlowFirstMatchERKNS_11StringPieceE(ptr noundef nonnull align 8 dereferenceable(40) %0, ptr noundef nonnull align 8 dereferenceable(16) %1) #0 align 2 {
  %3 = alloca i32, align 4
  %4 = alloca ptr, align 8
  %5 = alloca ptr, align 8
  %6 = alloca i64, align 8
  %7 = alloca i32, align 4
  store ptr %0, ptr %4, align 8, !tbaa !3
  store ptr %1, ptr %5, align 8, !tbaa !42
  %8 = load ptr, ptr %4, align 8
  call void @llvm.lifetime.start.p0(i64 8, ptr %6) #14
  store i64 0, ptr %6, align 8, !tbaa !32
  br label %9

9:                                                ; preds = %26, %2
  %10 = load i64, ptr %6, align 8, !tbaa !32
  %11 = getelementptr inbounds nuw %"class.duckdb_re2::FilteredRE2", ptr %8, i32 0, i32 0
  %12 = call noundef i64 @_ZNKSt6vectorIPN10duckdb_re23RE2ESaIS2_EE4sizeEv(ptr noundef nonnull align 8 dereferenceable(24) %11) #14
  %13 = icmp ult i64 %10, %12
  br i1 %13, label %15, label %14

14:                                               ; preds = %9
  store i32 2, ptr %7, align 4
  br label %29

15:                                               ; preds = %9
  %16 = load ptr, ptr %5, align 8, !tbaa !42
  %17 = getelementptr inbounds nuw %"class.duckdb_re2::FilteredRE2", ptr %8, i32 0, i32 0
  %18 = load i64, ptr %6, align 8, !tbaa !32
  %19 = call noundef nonnull align 8 dereferenceable(8) ptr @_ZNKSt6vectorIPN10duckdb_re23RE2ESaIS2_EEixEm(ptr noundef nonnull align 8 dereferenceable(24) %17, i64 noundef %18) #14
  %20 = load ptr, ptr %19, align 8, !tbaa !34
  %21 = call noundef zeroext i1 @_ZN10duckdb_re23RE212PartialMatchIJEEEbRKNS_11StringPieceERKS0_DpOT_(ptr noundef nonnull align 8 dereferenceable(16) %16, ptr noundef nonnull align 8 dereferenceable(148) %20)
  br i1 %21, label %22, label %25

22:                                               ; preds = %15
  %23 = load i64, ptr %6, align 8, !tbaa !32
  %24 = trunc i64 %23 to i32
  store i32 %24, ptr %3, align 4
  store i32 1, ptr %7, align 4
  br label %29

25:                                               ; preds = %15
  br label %26

26:                                               ; preds = %25
  %27 = load i64, ptr %6, align 8, !tbaa !32
  %28 = add i64 %27, 1
  store i64 %28, ptr %6, align 8, !tbaa !32
  br label %9, !llvm.loop !90

29:                                               ; preds = %22, %14
  call void @llvm.lifetime.end.p0(i64 8, ptr %6) #14
  %30 = load i32, ptr %7, align 4
  switch i32 %30, label %34 [
    i32 2, label %31
    i32 1, label %32
  ]

31:                                               ; preds = %29
  store i32 -1, ptr %3, align 4
  br label %32

32:                                               ; preds = %31, %29
  %33 = load i32, ptr %3, align 4
  ret i32 %33

34:                                               ; preds = %29
  unreachable
}